target datalayout = "e-m:e-p270:32:32-p271:32:32-p272:64:64-i64:64-i128:128-f80:128-n8:16:32:64-S128"
target triple = "x86_64-pc-linux-gnu"

%struct.H5VL_loc_params_t = type { i32, i32, %union.anon }
%union.anon = type { %struct.H5VL_loc_by_idx }
%struct.H5VL_loc_by_idx = type { ptr, i32, i32, i64, i64 }
%struct.H5VL_object_t = type { ptr, ptr, i64 }

@H5_libinit_g = external global i8, align 1
@H5_libterm_g = external global i8, align 1
@.str = private unnamed_addr constant [103 x i8] c"generated/home/dtcxzyw/WorkSpace/Projects/compilers/llvm-opt-benchmark/bench/hdf5/hdf5/src/H5Adeprec.c\00", align 1
@H5E_FUNC_g = external global i64, align 8
@H5E_CANTINIT_g = external global i64, align 8
@.str.1 = private unnamed_addr constant [30 x i8] c"library initialization failed\00", align 1
@H5E_CANTSET_g = external global i64, align 8
@.str.2 = private unnamed_addr constant [22 x i8] c"can't set API context\00", align 1
@H5E_ARGS_g = external global i64, align 8
@H5E_BADTYPE_g = external global i64, align 8
@.str.3 = private unnamed_addr constant [39 x i8] c"location is not valid for an attribute\00", align 1
@H5E_ATTR_g = external global i64, align 8
@.str.6 = private unnamed_addr constant [28 x i8] c"invalid location identifier\00", align 1
@H5P_LST_ATTRIBUTE_ACCESS_ID_g = external global i64, align 8
@H5P_LST_DATASET_XFER_ID_g = external global i64, align 8
@H5E_CANTREGISTER_g = external global i64, align 8
@H5E_CLOSEERROR_g = external global i64, align 8
@.str.9 = private unnamed_addr constant [22 x i8] c"can't close attribute\00", align 1
@H5E_CANTOPENOBJ_g = external global i64, align 8
@.str.10 = private unnamed_addr constant [25 x i8] c"unable to open attribute\00", align 1
@.str.11 = private unnamed_addr constant [36 x i8] c"unable to register attribute handle\00", align 1
@__func__.H5Aopen_idx = private unnamed_addr constant [12 x i8] c"H5Aopen_idx\00", align 1
@.str.12 = private unnamed_addr constant [2 x i8] c".\00", align 1
@H5P_LST_LINK_ACCESS_ID_g = external global i64, align 8

; Function Attrs: nounwind uwtable
define i64 @H5Aopen_idx(i64 noundef %0, i32 noundef %1) #0 {
  %3 = alloca i64, align 8
  %4 = alloca i32, align 4
  %5 = alloca ptr, align 8
  %6 = alloca ptr, align 8
  %7 = alloca %struct.H5VL_loc_params_t, align 8
  %8 = alloca i64, align 8
  %9 = alloca i8, align 1
  %10 = alloca i8, align 1
  store i64 %0, ptr %3, align 8
  store i32 %1, ptr %4, align 4
  store ptr null, ptr %5, align 8
  store ptr null, ptr %6, align 8
  store i64 -1, ptr %8, align 8
  store i8 0, ptr %9, align 1
  store i8 0, ptr %10, align 1
  %11 = load i8, ptr @H5_libinit_g, align 1
  %12 = trunc i8 %11 to i1
  br i1 %12, label %17, label %13

13:                                               ; preds = %2
  %14 = load i8, ptr @H5_libterm_g, align 1
  %15 = trunc i8 %14 to i1
  %16 = xor i1 %15, true
  br label %17

17:                                               ; preds = %13, %2
  %18 = phi i1 [ false, %2 ], [ %16, %13 ]
  %19 = xor i1 %18, true
  %20 = xor i1 %19, true
  %21 = zext i1 %20 to i32
  %22 = sext i32 %21 to i64
  %23 = icmp ne i64 %22, 0
  br i1 %23, label %24, label %48

24:                                               ; preds = %17
  %25 = call i32 @H5_init_library()
  %26 = icmp slt i32 %25, 0
  %27 = xor i1 %26, true
  %28 = xor i1 %27, true
  %29 = zext i1 %28 to i32
  %30 = sext i32 %29 to i64
  %31 = icmp ne i64 %30, 0
  br i1 %31, label %32, label %47

32:                                               ; preds = %24
  br label %33

33:                                               ; preds = %32
  br label %34

34:                                               ; preds = %33
  br label %35

35:                                               ; preds = %34
  %36 = load i64, ptr @H5E_FUNC_g, align 8
  %37 = load i64, ptr @H5E_CANTINIT_g, align 8
  %38 = call i32 (ptr, ptr, i32, i64, i64, ptr, ...) @H5E_printf_stack(ptr noundef @.str, ptr noundef @__func__.H5Aopen_idx, i32 noundef 247, i64 noundef %36, i64 noundef %37, ptr noundef @.str.1)
  br label %39

39:                                               ; preds = %35
  store i8 1, ptr %10, align 1
  %40 = load i8, ptr %10, align 1
  %41 = trunc i8 %40 to i1
  %42 = zext i1 %41 to i8
  store i8 %42, ptr %10, align 1
  br label %43

43:                                               ; preds = %39
  br label %44

44:                                               ; preds = %43
  store i64 -1, ptr %8, align 8
  br label %172

45:                                               ; No predecessors!
  br label %46

46:                                               ; preds = %45
  br label %47

47:                                               ; preds = %46, %24
  br label %48

48:                                               ; preds = %47, %17
  %49 = call i32 @H5CX_push()
  %50 = icmp slt i32 %49, 0
  %51 = xor i1 %50, true
  %52 = xor i1 %51, true
  %53 = zext i1 %52 to i32
  %54 = sext i32 %53 to i64
  %55 = icmp ne i64 %54, 0
  br i1 %55, label %56, label %71

56:                                               ; preds = %48
  br label %57

57:                                               ; preds = %56
  br label %58

58:                                               ; preds = %57
  br label %59

59:                                               ; preds = %58
  %60 = load i64, ptr @H5E_FUNC_g, align 8
  %61 = load i64, ptr @H5E_CANTSET_g, align 8
  %62 = call i32 (ptr, ptr, i32, i64, i64, ptr, ...) @H5E_printf_stack(ptr noundef @.str, ptr noundef @__func__.H5Aopen_idx, i32 noundef 247, i64 noundef %60, i64 noundef %61, ptr noundef @.str.2)
  br label %63

63:                                               ; preds = %59
  store i8 1, ptr %10, align 1
  %64 = load i8, ptr %10, align 1
  %65 = trunc i8 %64 to i1
  %66 = zext i1 %65 to i8
  store i8 %66, ptr %10, align 1
  br label %67

67:                                               ; preds = %63
  br label %68

68:                                               ; preds = %67
  store i64 -1, ptr %8, align 8
  br label %172

69:                                               ; No predecessors!
  br label %70

70:                                               ; preds = %69
  br label %72

71:                                               ; preds = %48
  store i8 1, ptr %9, align 1
  br label %72

72:                                               ; preds = %71, %70
  %73 = call i32 @H5E_clear_stack()
  %74 = load i64, ptr %3, align 8
  %75 = call i32 @H5I_get_type(i64 noundef %74)
  %76 = icmp eq i32 7, %75
  br i1 %76, label %77, label %92

77:                                               ; preds = %72
  br label %78

78:                                               ; preds = %77
  br label %79

79:                                               ; preds = %78
  br label %80

80:                                               ; preds = %79
  %81 = load i64, ptr @H5E_ARGS_g, align 8
  %82 = load i64, ptr @H5E_BADTYPE_g, align 8
  %83 = call i32 (ptr, ptr, i32, i64, i64, ptr, ...) @H5E_printf_stack(ptr noundef @.str, ptr noundef @__func__.H5Aopen_idx, i32 noundef 251, i64 noundef %81, i64 noundef %82, ptr noundef @.str.3)
  br label %84

84:                                               ; preds = %80
  store i8 1, ptr %10, align 1
  %85 = load i8, ptr %10, align 1
  %86 = trunc i8 %85 to i1
  %87 = zext i1 %86 to i8
  store i8 %87, ptr %10, align 1
  br label %88

88:                                               ; preds = %84
  br label %89

89:                                               ; preds = %88
  store i64 -1, ptr %8, align 8
  br label %172

90:                                               ; No predecessors!
  br label %91

91:                                               ; preds = %90
  br label %92

92:                                               ; preds = %91, %72
  %93 = getelementptr inbounds %struct.H5VL_loc_params_t, ptr %7, i32 0, i32 1
  store i32 2, ptr %93, align 4
  %94 = getelementptr inbounds %struct.H5VL_loc_params_t, ptr %7, i32 0, i32 2
  %95 = getelementptr inbounds %struct.H5VL_loc_by_idx, ptr %94, i32 0, i32 0
  store ptr @.str.12, ptr %95, align 8
  %96 = getelementptr inbounds %struct.H5VL_loc_params_t, ptr %7, i32 0, i32 2
  %97 = getelementptr inbounds %struct.H5VL_loc_by_idx, ptr %96, i32 0, i32 1
  store i32 1, ptr %97, align 8
  %98 = getelementptr inbounds %struct.H5VL_loc_params_t, ptr %7, i32 0, i32 2
  %99 = getelementptr inbounds %struct.H5VL_loc_by_idx, ptr %98, i32 0, i32 2
  store i32 0, ptr %99, align 4
  %100 = load i32, ptr %4, align 4
  %101 = zext i32 %100 to i64
  %102 = getelementptr inbounds %struct.H5VL_loc_params_t, ptr %7, i32 0, i32 2
  %103 = getelementptr inbounds %struct.H5VL_loc_by_idx, ptr %102, i32 0, i32 3
  store i64 %101, ptr %103, align 8
  %104 = load i64, ptr @H5P_LST_LINK_ACCESS_ID_g, align 8
  %105 = getelementptr inbounds %struct.H5VL_loc_params_t, ptr %7, i32 0, i32 2
  %106 = getelementptr inbounds %struct.H5VL_loc_by_idx, ptr %105, i32 0, i32 4
  store i64 %104, ptr %106, align 8
  %107 = load i64, ptr %3, align 8
  %108 = call i32 @H5I_get_type(i64 noundef %107)
  %109 = getelementptr inbounds %struct.H5VL_loc_params_t, ptr %7, i32 0, i32 0
  store i32 %108, ptr %109, align 8
  %110 = load i64, ptr %3, align 8
  %111 = call ptr @H5VL_vol_object(i64 noundef %110)
  store ptr %111, ptr %6, align 8
  %112 = icmp eq ptr null, %111
  br i1 %112, label %113, label %128

113:                                              ; preds = %92
  br label %114

114:                                              ; preds = %113
  br label %115

115:                                              ; preds = %114
  br label %116

116:                                              ; preds = %115
  %117 = load i64, ptr @H5E_ARGS_g, align 8
  %118 = load i64, ptr @H5E_BADTYPE_g, align 8
  %119 = call i32 (ptr, ptr, i32, i64, i64, ptr, ...) @H5E_printf_stack(ptr noundef @.str, ptr noundef @__func__.H5Aopen_idx, i32 noundef 264, i64 noundef %117, i64 noundef %118, ptr noundef @.str.6)
  br label %120

120:                                              ; preds = %116
  store i8 1, ptr %10, align 1
  %121 = load i8, ptr %10, align 1
  %122 = trunc i8 %121 to i1
  %123 = zext i1 %122 to i8
  store i8 %123, ptr %10, align 1
  br label %124

124:                                              ; preds = %120
  br label %125

125:                                              ; preds = %124
  store i64 -1, ptr %8, align 8
  br label %172

126:                                              ; No predecessors!
  br label %127

127:                                              ; preds = %126
  br label %128

128:                                              ; preds = %127, %92
  %129 = load ptr, ptr %6, align 8
  %130 = load i64, ptr @H5P_LST_ATTRIBUTE_ACCESS_ID_g, align 8
  %131 = load i64, ptr @H5P_LST_DATASET_XFER_ID_g, align 8
  %132 = call ptr @H5VL_attr_open(ptr noundef %129, ptr noundef %7, ptr noundef null, i64 noundef %130, i64 noundef %131, ptr noundef null)
  store ptr %132, ptr %5, align 8
  %133 = icmp eq ptr null, %132
  br i1 %133, label %134, label %149

134:                                              ; preds = %128
  br label %135

135:                                              ; preds = %134
  br label %136

136:                                              ; preds = %135
  br label %137

137:                                              ; preds = %136
  %138 = load i64, ptr @H5E_ATTR_g, align 8
  %139 = load i64, ptr @H5E_CANTOPENOBJ_g, align 8
  %140 = call i32 (ptr, ptr, i32, i64, i64, ptr, ...) @H5E_printf_stack(ptr noundef @.str, ptr noundef @__func__.H5Aopen_idx, i32 noundef 269, i64 noundef %138, i64 noundef %139, ptr noundef @.str.10)
  br label %141

141:                                              ; preds = %137
  store i8 1, ptr %10, align 1
  %142 = load i8, ptr %10, align 1
  %143 = trunc i8 %142 to i1
  %144 = zext i1 %143 to i8
  store i8 %144, ptr %10, align 1
  br label %145

145:                                              ; preds = %141
  br label %146

146:                                              ; preds = %145
  store i64 -1, ptr %8, align 8
  br label %172

147:                                              ; No predecessors!
  br label %148

148:                                              ; preds = %147
  br label %149

149:                                              ; preds = %148, %128
  %150 = load ptr, ptr %5, align 8
  %151 = load ptr, ptr %6, align 8
  %152 = getelementptr inbounds %struct.H5VL_object_t, ptr %151, i32 0, i32 1
  %153 = load ptr, ptr %152, align 8
  %154 = call i64 @H5VL_register(i32 noundef 7, ptr noundef %150, ptr noundef %153, i1 noundef zeroext true)
  store i64 %154, ptr %8, align 8
  %155 = icmp slt i64 %154, 0
  br i1 %155, label %156, label %171

156:                                              ; preds = %149
  br label %157

157:                                              ; preds = %156
  br label %158

158:                                              ; preds = %157
  br label %159

159:                                              ; preds = %158
  %160 = load i64, ptr @H5E_ATTR_g, align 8
  %161 = load i64, ptr @H5E_CANTREGISTER_g, align 8
  %162 = call i32 (ptr, ptr, i32, i64, i64, ptr, ...) @H5E_printf_stack(ptr noundef @.str, ptr noundef @__func__.H5Aopen_idx, i32 noundef 273, i64 noundef %160, i64 noundef %161, ptr noundef @.str.11)
  br label %163

163:                                              ; preds = %159
  store i8 1, ptr %10, align 1
  %164 = load i8, ptr %10, align 1
  %165 = trunc i8 %164 to i1
  %166 = zext i1 %165 to i8
  store i8 %166, ptr %10, align 1
  br label %167

167:                                              ; preds = %163
  br label %168

168:                                              ; preds = %167
  store i64 -1, ptr %8, align 8
  br label %172

169:                                              ; No predecessors!
  br label %170

170:                                              ; preds = %169
  br label %171

171:                                              ; preds = %170, %149
  br label %172

172:                                              ; preds = %171, %168, %146, %125, %89, %68, %44
  %173 = load i64, ptr %8, align 8
  %174 = icmp eq i64 -1, %173
  br i1 %174, label %175, label %197

175:                                              ; preds = %172
  %176 = load ptr, ptr %5, align 8
  %177 = icmp ne ptr %176, null
  br i1 %177, label %178, label %196

178:                                              ; preds = %175
  %179 = load ptr, ptr %6, align 8
  %180 = load i64, ptr @H5P_LST_DATASET_XFER_ID_g, align 8
  %181 = call i32 @H5VL_attr_close(ptr noundef %179, i64 noundef %180, ptr noundef null)
  %182 = icmp slt i32 %181, 0
  br i1 %182, label %183, label %196

183:                                              ; preds = %178
  br label %184

184:                                              ; preds = %183
  br label %185

185:                                              ; preds = %184
  br label %186

186:                                              ; preds = %185
  %187 = load i64, ptr @H5E_ATTR_g, align 8
  %188 = load i64, ptr @H5E_CLOSEERROR_g, align 8
  %189 = call i32 (ptr, ptr, i32, i64, i64, ptr, ...) @H5E_printf_stack(ptr noundef @.str, ptr noundef @__func__.H5Aopen_idx, i32 noundef 279, i64 noundef %187, i64 noundef %188, ptr noundef @.str.9)
  br label %190

190:                                              ; preds = %186
  store i8 1, ptr %10, align 1
  %191 = load i8, ptr %10, align 1
  %192 = trunc i8 %191 to i1
  %193 = zext i1 %192 to i8
  store i8 %193, ptr %10, align 1
  br label %194

194:                                              ; preds = %190
  store i64 -1, ptr %8, align 8
  br label %195

195:                                              ; preds = %194
  br label %196

196:                                              ; preds = %195, %178, %175
  br label %197

197:                                              ; preds = %196, %172
  %198 = load i8, ptr %9, align 1
  %199 = trunc i8 %198 to i1
  %200 = xor i1 %199, true
  %201 = xor i1 %200, true
  %202 = zext i1 %201 to i32
  %203 = sext i32 %202 to i64
  %204 = icmp ne i64 %203, 0
  br i1 %204, label %205, label %207

205:                                              ; preds = %197
  %206 = call i32 @H5CX_pop(i1 noundef zeroext true)
  store i8 0, ptr %9, align 1
  br label %207

207:                                              ; preds = %205, %197
  %208 = load i8, ptr %10, align 1
  %209 = trunc i8 %208 to i1
  %210 = xor i1 %209, true
  %211 = xor i1 %210, true
  %212 = zext i1 %211 to i32
  %213 = sext i32 %212 to i64
  %214 = icmp ne i64 %213, 0
  br i1 %214, label %215, label %217

215:                                              ; preds = %207
  %216 = call i32 @H5E_dump_api_stack()
  br label %217

217:                                              ; preds = %215, %207
  %218 = load i64, ptr %8, align 8
  ret i64 %218
}