; Function Attrs: nounwind uwtable
define range(i64 -1, -9223372036854775808) i64 @H5Aopen_idx(i64 noundef %0, i32 noundef %1) local_unnamed_addr #0 {
  %3 = alloca %struct.H5VL_loc_params_t, align 8
  %4 = load i8, ptr @H5_libinit_g, align 1
  %5 = trunc i8 %4 to i1
  %6 = load i8, ptr @H5_libterm_g, align 1
  %7 = trunc i8 %6 to i1
  %8 = select i1 %5, i1 true, i1 %7
  br i1 %8, label %16, label %9

9:                                                ; preds = %2
  %10 = tail call i32 @H5_init_library() #2
  %11 = icmp slt i32 %10, 0
  br i1 %11, label %12, label %16

12:                                               ; preds = %9
  %13 = load i64, ptr @H5E_FUNC_g, align 8
  %14 = load i64, ptr @H5E_CANTINIT_g, align 8
  %15 = tail call i32 (ptr, ptr, i32, i64, i64, ptr, ...) @H5E_printf_stack(ptr noundef nonnull @.str, ptr noundef nonnull @__func__.H5Aopen_idx, i32 noundef 247, i64 noundef %13, i64 noundef %14, ptr noundef nonnull @.str.1) #2
  br label %.thread52

16:                                               ; preds = %9, %2
  %17 = tail call i32 @H5CX_push() #2
  %18 = icmp slt i32 %17, 0
  br i1 %18, label %19, label %23

19:                                               ; preds = %16
  %20 = load i64, ptr @H5E_FUNC_g, align 8
  %21 = load i64, ptr @H5E_CANTSET_g, align 8
  %22 = tail call i32 (ptr, ptr, i32, i64, i64, ptr, ...) @H5E_printf_stack(ptr noundef nonnull @.str, ptr noundef nonnull @__func__.H5Aopen_idx, i32 noundef 247, i64 noundef %20, i64 noundef %21, ptr noundef nonnull @.str.2) #2
  br label %.thread52

23:                                               ; preds = %16
  %24 = tail call i32 @H5E_clear_stack() #2
  %25 = tail call i32 @H5I_get_type(i64 noundef %0) #2
  %26 = icmp eq i32 %25, 7
  br i1 %26, label %27, label %31

27:                                               ; preds = %23
  %28 = load i64, ptr @H5E_ARGS_g, align 8
  %29 = load i64, ptr @H5E_BADTYPE_g, align 8
  %30 = tail call i32 (ptr, ptr, i32, i64, i64, ptr, ...) @H5E_printf_stack(ptr noundef nonnull @.str, ptr noundef nonnull @__func__.H5Aopen_idx, i32 noundef 251, i64 noundef %28, i64 noundef %29, ptr noundef nonnull @.str.3) #2
  br label %.thread61

31:                                               ; preds = %23
  %32 = getelementptr inbounds i8, ptr %3, i64 4
  store i32 2, ptr %32, align 4
  %33 = getelementptr inbounds i8, ptr %3, i64 8
  store ptr @.str.12, ptr %33, align 8
  %34 = getelementptr inbounds i8, ptr %3, i64 16
  store i32 1, ptr %34, align 8
  %35 = getelementptr inbounds i8, ptr %3, i64 20
  store i32 0, ptr %35, align 4
  %36 = zext i32 %1 to i64
  %37 = getelementptr inbounds i8, ptr %3, i64 24
  store i64 %36, ptr %37, align 8
  %38 = load i64, ptr @H5P_LST_LINK_ACCESS_ID_g, align 8
  %39 = getelementptr inbounds i8, ptr %3, i64 32
  store i64 %38, ptr %39, align 8
  %40 = tail call i32 @H5I_get_type(i64 noundef %0) #2
  store i32 %40, ptr %3, align 8
  %41 = tail call ptr @H5VL_vol_object(i64 noundef %0) #2
  %42 = icmp eq ptr %41, null
  br i1 %42, label %43, label %47

43:                                               ; preds = %31
  %44 = load i64, ptr @H5E_ARGS_g, align 8
  %45 = load i64, ptr @H5E_BADTYPE_g, align 8
  %46 = tail call i32 (ptr, ptr, i32, i64, i64, ptr, ...) @H5E_printf_stack(ptr noundef nonnull @.str, ptr noundef nonnull @__func__.H5Aopen_idx, i32 noundef 264, i64 noundef %44, i64 noundef %45, ptr noundef nonnull @.str.6) #2
  br label %.thread61

47:                                               ; preds = %31
  %48 = load i64, ptr @H5P_LST_ATTRIBUTE_ACCESS_ID_g, align 8
  %49 = load i64, ptr @H5P_LST_DATASET_XFER_ID_g, align 8
  %50 = call ptr @H5VL_attr_open(ptr noundef nonnull %41, ptr noundef nonnull %3, ptr noundef null, i64 noundef %48, i64 noundef %49, ptr noundef null) #2
  %51 = icmp eq ptr %50, null
  br i1 %51, label %52, label %56

52:                                               ; preds = %47
  %53 = load i64, ptr @H5E_ATTR_g, align 8
  %54 = load i64, ptr @H5E_CANTOPENOBJ_g, align 8
  %55 = call i32 (ptr, ptr, i32, i64, i64, ptr, ...) @H5E_printf_stack(ptr noundef nonnull @.str, ptr noundef nonnull @__func__.H5Aopen_idx, i32 noundef 269, i64 noundef %53, i64 noundef %54, ptr noundef nonnull @.str.10) #2
  br label %.thread61

56:                                               ; preds = %47
  %57 = getelementptr inbounds i8, ptr %41, i64 8
  %58 = load ptr, ptr %57, align 8
  %59 = call i64 @H5VL_register(i32 noundef 7, ptr noundef nonnull %50, ptr noundef %58, i1 noundef zeroext true) #2
  %60 = icmp slt i64 %59, 0
  br i1 %60, label %61, label %74

61:                                               ; preds = %56
  %62 = load i64, ptr @H5E_ATTR_g, align 8
  %63 = load i64, ptr @H5E_CANTREGISTER_g, align 8
  %64 = call i32 (ptr, ptr, i32, i64, i64, ptr, ...) @H5E_printf_stack(ptr noundef nonnull @.str, ptr noundef nonnull @__func__.H5Aopen_idx, i32 noundef 273, i64 noundef %62, i64 noundef %63, ptr noundef nonnull @.str.11) #2
  %65 = load i64, ptr @H5P_LST_DATASET_XFER_ID_g, align 8
  %66 = call i32 @H5VL_attr_close(ptr noundef nonnull %41, i64 noundef %65, ptr noundef null) #2
  %67 = icmp slt i32 %66, 0
  br i1 %67, label %68, label %.thread57

68:                                               ; preds = %61
  %69 = load i64, ptr @H5E_ATTR_g, align 8
  %70 = load i64, ptr @H5E_CLOSEERROR_g, align 8
  %71 = call i32 (ptr, ptr, i32, i64, i64, ptr, ...) @H5E_printf_stack(ptr noundef nonnull @.str, ptr noundef nonnull @__func__.H5Aopen_idx, i32 noundef 279, i64 noundef %69, i64 noundef %70, ptr noundef nonnull @.str.9) #2
  br label %.thread57

.thread57:                                        ; preds = %61, %68
  %72 = call i32 @H5CX_pop(i1 noundef zeroext true) #2
  br label %.thread52

.thread61:                                        ; preds = %27, %43, %52
  %73 = call i32 @H5CX_pop(i1 noundef zeroext true) #2
  br label %.thread52

74:                                               ; preds = %56
  %75 = call i32 @H5CX_pop(i1 noundef zeroext true) #2
  br label %77

.thread52:                                        ; preds = %12, %19, %.thread61, %.thread57
  %76 = call i32 @H5E_dump_api_stack() #2
  br label %77

77:                                               ; preds = %74, %.thread52
  %.1224255 = phi i64 [ -1, %.thread52 ], [ %59, %74 ]
  ret i64 %.1224255
}